; Function Attrs: mustprogress uwtable
define noundef i64 @_ZNK6casadi7Reshape12n_primitivesEv(ptr noundef nonnull readonly align 8 captures(none) dereferenceable(64) %0) unnamed_addr #3 align 2 {
  %2 = getelementptr inbounds nuw i8, ptr %0, i64 32
  %3 = getelementptr inbounds nuw i8, ptr %0, i64 40
  %4 = load ptr, ptr %3, align 8, !tbaa !35
  %5 = load ptr, ptr %2, align 8, !tbaa !38
  %.not.i.i.i.not = icmp eq ptr %4, %5
  br i1 %.not.i.i.i.not, label %6, label %_ZNK6casadi6MXNode3depEx.exit

6:                                                ; preds = %1
  tail call void (ptr, ...) @_ZSt24__throw_out_of_range_fmtPKcz(ptr noundef nonnull @.str.14, i64 noundef 0, i64 noundef 0) #21
  unreachable

_ZNK6casadi6MXNode3depEx.exit:                    ; preds = %1
  %7 = tail call noundef ptr @_ZNK6casadi2MXptEv(ptr noundef nonnull align 8 dereferenceable(8) %5)
  %8 = load ptr, ptr %7, align 8, !tbaa !3
  %9 = getelementptr inbounds nuw i8, ptr %8, i64 224
  %10 = load ptr, ptr %9, align 8
  %11 = tail call noundef i64 %10(ptr noundef nonnull align 8 dereferenceable(64) %7)
  ret i64 %11
}